; ModuleID = '24/1027.c'
source_filename = "24/1027.c"
target datalayout = "e-m:e-p270:32:32-p271:32:32-p272:64:64-i64:64-f80:128-n8:16:32:64-S128"
target triple = "x86_64-pc-linux-gnu"

@.str = private unnamed_addr constant [7 x i8] c"%s\0A%s\0A\00", align 1

; Function Attrs: noinline nounwind uwtable
define dso_local i32 @main() #0 {
  %1 = alloca i32, align 4
  %2 = alloca [5000 x i8], align 16
  %3 = alloca i32, align 4
  %4 = alloca i32, align 4
  %5 = alloca i32, align 4
  %6 = alloca i32, align 4
  %7 = alloca i32, align 4
  %8 = alloca [50 x [50 x i8]], align 16
  %9 = alloca i32, align 4
  %10 = alloca i32, align 4
  %11 = alloca i32, align 4
  store i32 0, i32* %1, align 4
  %12 = bitcast [5000 x i8]* %2 to i8*
  call void @llvm.memset.p0i8.i64(i8* align 16 %12, i8 0, i64 5000, i1 false)
  %13 = getelementptr inbounds [5000 x i8], [5000 x i8]* %2, i64 0, i64 0
  %14 = call i32 (i8*, ...) bitcast (i32 (...)* @gets to i32 (i8*, ...)*)(i8* %13)
  %15 = getelementptr inbounds [5000 x i8], [5000 x i8]* %2, i64 0, i64 0
  %16 = call i64 @strlen(i8* %15) #4
  %17 = trunc i64 %16 to i32
  store i32 %17, i32* %4, align 4
  store i32 0, i32* %3, align 4
  store i32 0, i32* %7, align 4
  store i32 0, i32* %9, align 4
  store i32 0, i32* %5, align 4
  br label %18

18:                                               ; preds = %79, %0
  %19 = load i32, i32* %7, align 4
  %20 = load i32, i32* %4, align 4
  %21 = icmp slt i32 %19, %20
  br i1 %21, label %22, label %82

22:                                               ; preds = %18
  store i32 0, i32* %3, align 4
  store i32 0, i32* %6, align 4
  br label %23

23:                                               ; preds = %64, %22
  %24 = load i32, i32* %7, align 4
  %25 = load i32, i32* %4, align 4
  %26 = icmp slt i32 %24, %25
  br i1 %26, label %27, label %67

27:                                               ; preds = %23
  %28 = load i32, i32* %7, align 4
  %29 = sext i32 %28 to i64
  %30 = getelementptr inbounds [5000 x i8], [5000 x i8]* %2, i64 0, i64 %29
  %31 = load i8, i8* %30, align 1
  %32 = sext i8 %31 to i32
  %33 = icmp ne i32 %32, 32
  br i1 %33, label %34, label %45

34:                                               ; preds = %27
  %35 = load i32, i32* %7, align 4
  %36 = sext i32 %35 to i64
  %37 = getelementptr inbounds [5000 x i8], [5000 x i8]* %2, i64 0, i64 %36
  %38 = load i8, i8* %37, align 1
  %39 = load i32, i32* %5, align 4
  %40 = sext i32 %39 to i64
  %41 = getelementptr inbounds [50 x [50 x i8]], [50 x [50 x i8]]* %8, i64 0, i64 %40
  %42 = load i32, i32* %6, align 4
  %43 = sext i32 %42 to i64
  %44 = getelementptr inbounds [50 x i8], [50 x i8]* %41, i64 0, i64 %43
  store i8 %38, i8* %44, align 1
  br label %45

45:                                               ; preds = %34, %27
  %46 = load i32, i32* %7, align 4
  %47 = sext i32 %46 to i64
  %48 = getelementptr inbounds [5000 x i8], [5000 x i8]* %2, i64 0, i64 %47
  %49 = load i8, i8* %48, align 1
  %50 = sext i8 %49 to i32
  %51 = icmp eq i32 %50, 32
  br i1 %51, label %52, label %61

52:                                               ; preds = %45
  %53 = load i32, i32* %7, align 4
  %54 = add nsw i32 %53, 1
  store i32 %54, i32* %7, align 4
  %55 = load i32, i32* %5, align 4
  %56 = sext i32 %55 to i64
  %57 = getelementptr inbounds [50 x [50 x i8]], [50 x [50 x i8]]* %8, i64 0, i64 %56
  %58 = load i32, i32* %6, align 4
  %59 = sext i32 %58 to i64
  %60 = getelementptr inbounds [50 x i8], [50 x i8]* %57, i64 0, i64 %59
  store i8 0, i8* %60, align 1
  br label %67

61:                                               ; preds = %45
  %62 = load i32, i32* %7, align 4
  %63 = add nsw i32 %62, 1
  store i32 %63, i32* %7, align 4
  br label %64

64:                                               ; preds = %61
  %65 = load i32, i32* %6, align 4
  %66 = add nsw i32 %65, 1
  store i32 %66, i32* %6, align 4
  br label %23

67:                                               ; preds = %52, %23
  %68 = load i32, i32* %7, align 4
  %69 = load i32, i32* %4, align 4
  %70 = icmp sge i32 %68, %69
  br i1 %70, label %71, label %78

71:                                               ; preds = %67
  %72 = load i32, i32* %5, align 4
  %73 = sext i32 %72 to i64
  %74 = getelementptr inbounds [50 x [50 x i8]], [50 x [50 x i8]]* %8, i64 0, i64 %73
  %75 = load i32, i32* %6, align 4
  %76 = sext i32 %75 to i64
  %77 = getelementptr inbounds [50 x i8], [50 x i8]* %74, i64 0, i64 %76
  store i8 0, i8* %77, align 1
  br label %78

78:                                               ; preds = %71, %67
  br label %79

79:                                               ; preds = %78
  %80 = load i32, i32* %5, align 4
  %81 = add nsw i32 %80, 1
  store i32 %81, i32* %5, align 4
  br label %18

82:                                               ; preds = %18
  %83 = load i32, i32* %5, align 4
  store i32 %83, i32* %9, align 4
  store i32 0, i32* %10, align 4
  store i32 0, i32* %11, align 4
  store i32 1, i32* %5, align 4
  br label %84

84:                                               ; preds = %117, %82
  %85 = load i32, i32* %5, align 4
  %86 = load i32, i32* %9, align 4
  %87 = icmp slt i32 %85, %86
  br i1 %87, label %88, label %120

88:                                               ; preds = %84
  %89 = load i32, i32* %10, align 4
  %90 = sext i32 %89 to i64
  %91 = getelementptr inbounds [50 x [50 x i8]], [50 x [50 x i8]]* %8, i64 0, i64 %90
  %92 = getelementptr inbounds [50 x i8], [50 x i8]* %91, i64 0, i64 0
  %93 = call i64 @strlen(i8* %92) #4
  %94 = load i32, i32* %5, align 4
  %95 = sext i32 %94 to i64
  %96 = getelementptr inbounds [50 x [50 x i8]], [50 x [50 x i8]]* %8, i64 0, i64 %95
  %97 = getelementptr inbounds [50 x i8], [50 x i8]* %96, i64 0, i64 0
  %98 = call i64 @strlen(i8* %97) #4
  %99 = icmp ult i64 %93, %98
  br i1 %99, label %100, label %102

100:                                              ; preds = %88
  %101 = load i32, i32* %5, align 4
  store i32 %101, i32* %10, align 4
  br label %102

102:                                              ; preds = %100, %88
  %103 = load i32, i32* %11, align 4
  %104 = sext i32 %103 to i64
  %105 = getelementptr inbounds [50 x [50 x i8]], [50 x [50 x i8]]* %8, i64 0, i64 %104
  %106 = getelementptr inbounds [50 x i8], [50 x i8]* %105, i64 0, i64 0
  %107 = call i64 @strlen(i8* %106) #4
  %108 = load i32, i32* %5, align 4
  %109 = sext i32 %108 to i64
  %110 = getelementptr inbounds [50 x [50 x i8]], [50 x [50 x i8]]* %8, i64 0, i64 %109
  %111 = getelementptr inbounds [50 x i8], [50 x i8]* %110, i64 0, i64 0
  %112 = call i64 @strlen(i8* %111) #4
  %113 = icmp ugt i64 %107, %112
  br i1 %113, label %114, label %116

114:                                              ; preds = %102
  %115 = load i32, i32* %5, align 4
  store i32 %115, i32* %11, align 4
  br label %116

116:                                              ; preds = %114, %102
  br label %117

117:                                              ; preds = %116
  %118 = load i32, i32* %5, align 4
  %119 = add nsw i32 %118, 1
  store i32 %119, i32* %5, align 4
  br label %84

120:                                              ; preds = %84
  %121 = load i32, i32* %10, align 4
  %122 = sext i32 %121 to i64
  %123 = getelementptr inbounds [50 x [50 x i8]], [50 x [50 x i8]]* %8, i64 0, i64 %122
  %124 = getelementptr inbounds [50 x i8], [50 x i8]* %123, i64 0, i64 0
  %125 = load i32, i32* %11, align 4
  %126 = sext i32 %125 to i64
  %127 = getelementptr inbounds [50 x [50 x i8]], [50 x [50 x i8]]* %8, i64 0, i64 %126
  %128 = getelementptr inbounds [50 x i8], [50 x i8]* %127, i64 0, i64 0
  %129 = call i32 (i8*, ...) @printf(i8* getelementptr inbounds ([7 x i8], [7 x i8]* @.str, i64 0, i64 0), i8* %124, i8* %128)
  ret i32 0
}

; Function Attrs: argmemonly nounwind willreturn
declare void @llvm.memset.p0i8.i64(i8* nocapture writeonly, i8, i64, i1 immarg) #1

declare dso_local i32 @gets(...) #2

; Function Attrs: nounwind readonly
declare dso_local i64 @strlen(i8*) #3

declare dso_local i32 @printf(i8*, ...) #2


!llvm.module.flags = !{!0}
!llvm.ident = !{!1}

!0 = !{i32 1, !"wchar_size", i32 4}
!1 = !{!"clang version 10.0.0-4ubuntu1 "}
